; Function Attrs: nounwind uwtable
define hidden ptr @getJavaString(ptr noundef %0, ptr noundef %1) local_unnamed_addr #0 {
  %3 = alloca i32, align 4
  %.not = icmp eq ptr %1, null
  br i1 %.not, label %37, label %4

4:                                                ; preds = %2
  %5 = load i64, ptr %1, align 8
  %6 = trunc i64 %5 to i32
  %7 = load ptr, ptr %0, align 8
  %8 = getelementptr inbounds i8, ptr %7, i64 1408
  %9 = load ptr, ptr %8, align 8
  %10 = tail call ptr %9(ptr noundef nonnull %0, i32 noundef %6) #12
  %11 = icmp eq ptr %10, null
  br i1 %11, label %29, label %12

12:                                               ; preds = %4
  %13 = load ptr, ptr %0, align 8
  %14 = getelementptr inbounds i8, ptr %13, i64 1664
  %15 = load ptr, ptr %14, align 8
  %16 = getelementptr inbounds i8, ptr %1, i64 8
  %17 = load ptr, ptr %16, align 8
  tail call void %15(ptr noundef nonnull %0, ptr noundef nonnull %10, i32 noundef 0, i32 noundef %6, ptr noundef %17) #12
  %18 = load ptr, ptr %0, align 8
  %19 = getelementptr inbounds i8, ptr %18, i64 1824
  %20 = load ptr, ptr %19, align 8
  %21 = tail call zeroext i8 %20(ptr noundef nonnull %0) #12
  %.not24 = icmp eq i8 %21, 0
  br i1 %.not24, label %22, label %29

22:                                               ; preds = %12
  %23 = load ptr, ptr %0, align 8
  %24 = getelementptr inbounds i8, ptr %23, i64 224
  %25 = load ptr, ptr %24, align 8
  %26 = load ptr, ptr @CLS_String, align 8
  %27 = load ptr, ptr @MID_String_ctor, align 8
  %28 = tail call ptr (ptr, ptr, ptr, ...) %25(ptr noundef nonnull %0, ptr noundef %26, ptr noundef %27, ptr noundef nonnull %10) #12
  br label %29

29:                                               ; preds = %12, %4, %22
  %.021 = phi ptr [ null, %4 ], [ null, %12 ], [ %28, %22 ]
  %30 = load ptr, ptr %0, align 8
  %31 = getelementptr inbounds i8, ptr %30, i64 184
  %32 = load ptr, ptr %31, align 8
  tail call void %32(ptr noundef nonnull %0, ptr noundef %10) #12
  %33 = load ptr, ptr @ftab, align 8
  %34 = getelementptr inbounds i8, ptr %33, i64 224
  %35 = load ptr, ptr %34, align 8
  %36 = call i32 %35(ptr noundef nonnull %3, ptr noundef nonnull %1) #12
  br label %37

37:                                               ; preds = %2, %29
  %.0 = phi ptr [ %.021, %29 ], [ null, %2 ]
  ret ptr %.0
}